target datalayout = "e-m:e-p270:32:32-p271:32:32-p272:64:64-i64:64-i128:128-f80:128-n8:16:32:64-S128"
target triple = "x86_64-pc-linux-gnu"

%struct.gmx_ana_selvalue_t = type { i32, i32, %union.anon, i32 }
%union.anon = type { ptr }
%struct.gmx_ana_index_t = type { i32, ptr, i32 }
%"struct.gmx::SelMethodEvalContext" = type { ptr, ptr, ptr }
%struct.gmx_mtop_t = type { ptr, %struct.gmx_ffparams_t, %"class.std::vector.10", %"class.std::vector.15", i8, %"class.std::unique_ptr", i32, %struct.SimulationGroups, %struct.t_symtab, i8, %"class.std::vector", %"class.std::vector.33", i32, i32 }
%struct.gmx_ffparams_t = type { i32, %"class.std::vector", %"class.std::vector.0", double, float, %struct.gmx_cmap_t }
%"class.std::vector.0" = type { %"struct.std::_Vector_base.1" }
%"struct.std::_Vector_base.1" = type { %"struct.std::_Vector_base<t_iparams, std::allocator<t_iparams>>::_Vector_impl" }
%"struct.std::_Vector_base<t_iparams, std::allocator<t_iparams>>::_Vector_impl" = type { %"struct.std::_Vector_base<t_iparams, std::allocator<t_iparams>>::_Vector_impl_data" }
%"struct.std::_Vector_base<t_iparams, std::allocator<t_iparams>>::_Vector_impl_data" = type { ptr, ptr, ptr }
%struct.gmx_cmap_t = type { i32, %"class.std::vector.5" }
%"class.std::vector.5" = type { %"struct.std::_Vector_base.6" }
%"struct.std::_Vector_base.6" = type { %"struct.std::_Vector_base<gmx_cmapdata_t, std::allocator<gmx_cmapdata_t>>::_Vector_impl" }
%"struct.std::_Vector_base<gmx_cmapdata_t, std::allocator<gmx_cmapdata_t>>::_Vector_impl" = type { %"struct.std::_Vector_base<gmx_cmapdata_t, std::allocator<gmx_cmapdata_t>>::_Vector_impl_data" }
%"struct.std::_Vector_base<gmx_cmapdata_t, std::allocator<gmx_cmapdata_t>>::_Vector_impl_data" = type { ptr, ptr, ptr }
%"class.std::vector.10" = type { %"struct.std::_Vector_base.11" }
%"struct.std::_Vector_base.11" = type { %"struct.std::_Vector_base<gmx_moltype_t, std::allocator<gmx_moltype_t>>::_Vector_impl" }
%"struct.std::_Vector_base<gmx_moltype_t, std::allocator<gmx_moltype_t>>::_Vector_impl" = type { %"struct.std::_Vector_base<gmx_moltype_t, std::allocator<gmx_moltype_t>>::_Vector_impl_data" }
%"struct.std::_Vector_base<gmx_moltype_t, std::allocator<gmx_moltype_t>>::_Vector_impl_data" = type { ptr, ptr, ptr }
%"class.std::vector.15" = type { %"struct.std::_Vector_base.16" }
%"struct.std::_Vector_base.16" = type { %"struct.std::_Vector_base<gmx_molblock_t, std::allocator<gmx_molblock_t>>::_Vector_impl" }
%"struct.std::_Vector_base<gmx_molblock_t, std::allocator<gmx_molblock_t>>::_Vector_impl" = type { %"struct.std::_Vector_base<gmx_molblock_t, std::allocator<gmx_molblock_t>>::_Vector_impl_data" }
%"struct.std::_Vector_base<gmx_molblock_t, std::allocator<gmx_molblock_t>>::_Vector_impl_data" = type { ptr, ptr, ptr }
%"class.std::unique_ptr" = type { %"struct.std::__uniq_ptr_data" }
%"struct.std::__uniq_ptr_data" = type { %"class.std::__uniq_ptr_impl" }
%"class.std::__uniq_ptr_impl" = type { %"class.std::tuple" }
%"class.std::tuple" = type { %"struct.std::_Tuple_impl" }
%"struct.std::_Tuple_impl" = type { %"struct.std::_Head_base.21" }
%"struct.std::_Head_base.21" = type { ptr }
%struct.SimulationGroups = type { %"struct.gmx::EnumerationArray", %"class.std::vector.22", %"struct.gmx::EnumerationArray.27" }
%"struct.gmx::EnumerationArray" = type { [10 x %"class.std::vector"] }
%"class.std::vector.22" = type { %"struct.std::_Vector_base.23" }
%"struct.std::_Vector_base.23" = type { %"struct.std::_Vector_base<char **, std::allocator<char **>>::_Vector_impl" }
%"struct.std::_Vector_base<char **, std::allocator<char **>>::_Vector_impl" = type { %"struct.std::_Vector_base<char **, std::allocator<char **>>::_Vector_impl_data" }
%"struct.std::_Vector_base<char **, std::allocator<char **>>::_Vector_impl_data" = type { ptr, ptr, ptr }
%"struct.gmx::EnumerationArray.27" = type { [10 x %"class.std::vector.28"] }
%"class.std::vector.28" = type { %"struct.std::_Vector_base.29" }
%"struct.std::_Vector_base.29" = type { %"struct.std::_Vector_base<unsigned char, std::allocator<unsigned char>>::_Vector_impl" }
%"struct.std::_Vector_base<unsigned char, std::allocator<unsigned char>>::_Vector_impl" = type { %"struct.std::_Vector_base<unsigned char, std::allocator<unsigned char>>::_Vector_impl_data" }
%"struct.std::_Vector_base<unsigned char, std::allocator<unsigned char>>::_Vector_impl_data" = type { ptr, ptr, ptr }
%struct.t_symtab = type { i32, ptr }
%"class.std::vector" = type { %"struct.std::_Vector_base" }
%"struct.std::_Vector_base" = type { %"struct.std::_Vector_base<int, std::allocator<int>>::_Vector_impl" }
%"struct.std::_Vector_base<int, std::allocator<int>>::_Vector_impl" = type { %"struct.std::_Vector_base<int, std::allocator<int>>::_Vector_impl_data" }
%"struct.std::_Vector_base<int, std::allocator<int>>::_Vector_impl_data" = type { ptr, ptr, ptr }
%"class.std::vector.33" = type { %"struct.std::_Vector_base.34" }
%"struct.std::_Vector_base.34" = type { %"struct.std::_Vector_base<MoleculeBlockIndices, std::allocator<MoleculeBlockIndices>>::_Vector_impl" }
%"struct.std::_Vector_base<MoleculeBlockIndices, std::allocator<MoleculeBlockIndices>>::_Vector_impl" = type { %"struct.std::_Vector_base<MoleculeBlockIndices, std::allocator<MoleculeBlockIndices>>::_Vector_impl_data" }
%"struct.std::_Vector_base<MoleculeBlockIndices, std::allocator<MoleculeBlockIndices>>::_Vector_impl_data" = type { ptr, ptr, ptr }
%struct.gmx_molblock_t = type { i32, i32, %"class.std::vector.38", %"class.std::vector.38" }
%"class.std::vector.38" = type { %"struct.std::_Vector_base.39" }
%"struct.std::_Vector_base.39" = type { %"struct.std::_Vector_base<gmx::BasicVector<float>, std::allocator<gmx::BasicVector<float>>>::_Vector_impl" }
%"struct.std::_Vector_base<gmx::BasicVector<float>, std::allocator<gmx::BasicVector<float>>>::_Vector_impl" = type { %"struct.std::_Vector_base<gmx::BasicVector<float>, std::allocator<gmx::BasicVector<float>>>::_Vector_impl_data" }
%"struct.std::_Vector_base<gmx::BasicVector<float>, std::allocator<gmx::BasicVector<float>>>::_Vector_impl_data" = type { ptr, ptr, ptr }
%struct.gmx_moltype_t = type { ptr, %struct.t_atoms, %"struct.std::array", %"class.gmx::ListOfLists" }
%struct.t_atoms = type { i32, ptr, ptr, ptr, ptr, i32, ptr, ptr, i8, i8, i8, i8, i8 }
%"struct.std::array" = type { [95 x %struct.InteractionList] }
%struct.InteractionList = type { %"class.std::vector" }
%"class.gmx::ListOfLists" = type { %"class.std::vector", %"class.std::vector" }
%struct.MoleculeBlockIndices = type { i32, i32, i32, i32, i32, i32 }
%struct.t_pdbinfo = type { i32, i32, i8, [6 x i8], float, float, i8, [6 x i32] }

; Function Attrs: mustprogress nounwind uwtable
define linkonce_odr noundef nonnull align 4 dereferenceable(24) ptr @_ZNKSt6vectorI20MoleculeBlockIndicesSaIS0_EEixEm(ptr noundef nonnull align 8 dereferenceable(24) %0, i64 noundef %1) #2 comdat align 2 {
  %3 = alloca ptr, align 8
  %4 = alloca i64, align 8
  store ptr %0, ptr %3, align 8, !tbaa !89
  store i64 %1, ptr %4, align 8, !tbaa !80
  %5 = load ptr, ptr %3, align 8
  %6 = getelementptr inbounds nuw %"struct.std::_Vector_base.34", ptr %5, i32 0, i32 0
  %7 = getelementptr inbounds nuw %"struct.std::_Vector_base<MoleculeBlockIndices, std::allocator<MoleculeBlockIndices>>::_Vector_impl_data", ptr %6, i32 0, i32 0
  %8 = load ptr, ptr %7, align 8, !tbaa !91
  %9 = load i64, ptr %4, align 8, !tbaa !80
  %10 = getelementptr inbounds nuw %struct.MoleculeBlockIndices, ptr %8, i64 %9
  ret ptr %10
}

; Function Attrs: mustprogress nounwind uwtable
define linkonce_odr noundef i64 @_ZNKSt6vectorI14gmx_molblock_tSaIS0_EE4sizeEv(ptr noundef nonnull align 8 dereferenceable(24) %0) #2 comdat align 2 {
  %2 = alloca ptr, align 8
  store ptr %0, ptr %2, align 8, !tbaa !78
  %3 = load ptr, ptr %2, align 8
  %4 = getelementptr inbounds nuw %"struct.std::_Vector_base.16", ptr %3, i32 0, i32 0
  %5 = getelementptr inbounds nuw %"struct.std::_Vector_base<gmx_molblock_t, std::allocator<gmx_molblock_t>>::_Vector_impl_data", ptr %4, i32 0, i32 1
  %6 = load ptr, ptr %5, align 8, !tbaa !137
  %7 = getelementptr inbounds nuw %"struct.std::_Vector_base.16", ptr %3, i32 0, i32 0
  %8 = getelementptr inbounds nuw %"struct.std::_Vector_base<gmx_molblock_t, std::allocator<gmx_molblock_t>>::_Vector_impl_data", ptr %7, i32 0, i32 0
  %9 = load ptr, ptr %8, align 8, !tbaa !82
  %10 = ptrtoint ptr %6 to i64
  %11 = ptrtoint ptr %9 to i64
  %12 = sub i64 %10, %11
  %13 = sdiv exact i64 %12, 56
  ret i64 %13
}

; Function Attrs: mustprogress nounwind uwtable
define linkonce_odr noundef nonnull align 8 dereferenceable(2408) ptr @_ZNKSt6vectorI13gmx_moltype_tSaIS0_EEixEm(ptr noundef nonnull align 8 dereferenceable(24) %0, i64 noundef %1) #2 comdat align 2 {
  %3 = alloca ptr, align 8
  %4 = alloca i64, align 8
  store ptr %0, ptr %3, align 8, !tbaa !84
  store i64 %1, ptr %4, align 8, !tbaa !80
  %5 = load ptr, ptr %3, align 8
  %6 = getelementptr inbounds nuw %"struct.std::_Vector_base.11", ptr %5, i32 0, i32 0
  %7 = getelementptr inbounds nuw %"struct.std::_Vector_base<gmx_moltype_t, std::allocator<gmx_moltype_t>>::_Vector_impl_data", ptr %6, i32 0, i32 0
  %8 = load ptr, ptr %7, align 8, !tbaa !86
  %9 = load i64, ptr %4, align 8, !tbaa !80
  %10 = getelementptr inbounds nuw %struct.gmx_moltype_t, ptr %8, i64 %9
  ret ptr %10
}

; Function Attrs: mustprogress nounwind uwtable
define linkonce_odr noundef nonnull align 8 dereferenceable(56) ptr @_ZNKSt6vectorI14gmx_molblock_tSaIS0_EEixEm(ptr noundef nonnull align 8 dereferenceable(24) %0, i64 noundef %1) #2 comdat align 2 {
  %3 = alloca ptr, align 8
  %4 = alloca i64, align 8
  store ptr %0, ptr %3, align 8, !tbaa !78
  store i64 %1, ptr %4, align 8, !tbaa !80
  %5 = load ptr, ptr %3, align 8
  %6 = getelementptr inbounds nuw %"struct.std::_Vector_base.16", ptr %5, i32 0, i32 0
  %7 = getelementptr inbounds nuw %"struct.std::_Vector_base<gmx_molblock_t, std::allocator<gmx_molblock_t>>::_Vector_impl_data", ptr %6, i32 0, i32 0
  %8 = load ptr, ptr %7, align 8, !tbaa !82
  %9 = load i64, ptr %4, align 8, !tbaa !80
  %10 = getelementptr inbounds nuw %struct.gmx_molblock_t, ptr %8, i64 %9
  ret ptr %10
}

; Function Attrs: inlinehint mustprogress nounwind uwtable
define internal void @_ZL20mtopGetMolblockIndexRK10gmx_mtop_tiPiS2_S2_(ptr noundef nonnull align 8 dereferenceable(768) %0, i32 noundef %1, ptr noundef %2, ptr noundef %3, ptr noundef %4) #5 {
  %6 = alloca ptr, align 8
  %7 = alloca i32, align 4
  %8 = alloca ptr, align 8
  %9 = alloca ptr, align 8
  %10 = alloca ptr, align 8
  %11 = alloca i32, align 4
  %12 = alloca i32, align 4
  %13 = alloca i32, align 4
  %14 = alloca i32, align 4
  store ptr %0, ptr %6, align 8, !tbaa !32
  store i32 %1, ptr %7, align 4, !tbaa !22
  store ptr %2, ptr %8, align 8, !tbaa !33
  store ptr %3, ptr %9, align 8, !tbaa !33
  store ptr %4, ptr %10, align 8, !tbaa !33
  call void @llvm.lifetime.start.p0(i64 4, ptr %11) #18
  store i32 -1, ptr %11, align 4, !tbaa !22
  call void @llvm.lifetime.start.p0(i64 4, ptr %12) #18
  %15 = load ptr, ptr %6, align 8, !tbaa !32
  %16 = getelementptr inbounds nuw %struct.gmx_mtop_t, ptr %15, i32 0, i32 3
  %17 = call noundef i64 @_ZNKSt6vectorI14gmx_molblock_tSaIS0_EE4sizeEv(ptr noundef nonnull align 8 dereferenceable(24) %16) #18
  %18 = trunc i64 %17 to i32
  store i32 %18, ptr %12, align 4, !tbaa !22
  call void @llvm.lifetime.start.p0(i64 4, ptr %13) #18
  store i32 0, ptr %13, align 4, !tbaa !22
  br label %19

19:                                               ; preds = %51, %5
  br label %20

20:                                               ; preds = %19
  %21 = load ptr, ptr %6, align 8, !tbaa !32
  %22 = getelementptr inbounds nuw %struct.gmx_mtop_t, ptr %21, i32 0, i32 11
  %23 = load ptr, ptr %8, align 8, !tbaa !33
  %24 = load i32, ptr %23, align 4, !tbaa !22
  %25 = sext i32 %24 to i64
  %26 = call noundef nonnull align 4 dereferenceable(24) ptr @_ZNKSt6vectorI20MoleculeBlockIndicesSaIS0_EEixEm(ptr noundef nonnull align 8 dereferenceable(24) %22, i64 noundef %25) #18
  %27 = getelementptr inbounds nuw %struct.MoleculeBlockIndices, ptr %26, i32 0, i32 1
  %28 = load i32, ptr %27, align 4, !tbaa !74
  store i32 %28, ptr %13, align 4, !tbaa !22
  %29 = load i32, ptr %7, align 4, !tbaa !22
  %30 = load i32, ptr %13, align 4, !tbaa !22
  %31 = icmp slt i32 %29, %30
  br i1 %31, label %32, label %35

32:                                               ; preds = %20
  %33 = load ptr, ptr %8, align 8, !tbaa !33
  %34 = load i32, ptr %33, align 4, !tbaa !22
  store i32 %34, ptr %12, align 4, !tbaa !22
  br label %51

35:                                               ; preds = %20
  %36 = load i32, ptr %7, align 4, !tbaa !22
  %37 = load ptr, ptr %6, align 8, !tbaa !32
  %38 = getelementptr inbounds nuw %struct.gmx_mtop_t, ptr %37, i32 0, i32 11
  %39 = load ptr, ptr %8, align 8, !tbaa !33
  %40 = load i32, ptr %39, align 4, !tbaa !22
  %41 = sext i32 %40 to i64
  %42 = call noundef nonnull align 4 dereferenceable(24) ptr @_ZNKSt6vectorI20MoleculeBlockIndicesSaIS0_EEixEm(ptr noundef nonnull align 8 dereferenceable(24) %38, i64 noundef %41) #18
  %43 = getelementptr inbounds nuw %struct.MoleculeBlockIndices, ptr %42, i32 0, i32 2
  %44 = load i32, ptr %43, align 4, !tbaa !75
  %45 = icmp sge i32 %36, %44
  br i1 %45, label %46, label %49

46:                                               ; preds = %35
  %47 = load ptr, ptr %8, align 8, !tbaa !33
  %48 = load i32, ptr %47, align 4, !tbaa !22
  store i32 %48, ptr %11, align 4, !tbaa !22
  br label %50

49:                                               ; preds = %35
  br label %58

50:                                               ; preds = %46
  br label %51

51:                                               ; preds = %50, %32
  %52 = load i32, ptr %11, align 4, !tbaa !22
  %53 = load i32, ptr %12, align 4, !tbaa !22
  %54 = add nsw i32 %52, %53
  %55 = add nsw i32 %54, 1
  %56 = ashr i32 %55, 1
  %57 = load ptr, ptr %8, align 8, !tbaa !33
  store i32 %56, ptr %57, align 4, !tbaa !22
  br label %19, !llvm.loop !76

58:                                               ; preds = %49
  call void @llvm.lifetime.start.p0(i64 4, ptr %14) #18
  %59 = load i32, ptr %7, align 4, !tbaa !22
  %60 = load i32, ptr %13, align 4, !tbaa !22
  %61 = sub nsw i32 %59, %60
  %62 = load ptr, ptr %6, align 8, !tbaa !32
  %63 = getelementptr inbounds nuw %struct.gmx_mtop_t, ptr %62, i32 0, i32 11
  %64 = load ptr, ptr %8, align 8, !tbaa !33
  %65 = load i32, ptr %64, align 4, !tbaa !22
  %66 = sext i32 %65 to i64
  %67 = call noundef nonnull align 4 dereferenceable(24) ptr @_ZNKSt6vectorI20MoleculeBlockIndicesSaIS0_EEixEm(ptr noundef nonnull align 8 dereferenceable(24) %63, i64 noundef %66) #18
  %68 = getelementptr inbounds nuw %struct.MoleculeBlockIndices, ptr %67, i32 0, i32 0
  %69 = load i32, ptr %68, align 4, !tbaa !77
  %70 = sdiv i32 %61, %69
  store i32 %70, ptr %14, align 4, !tbaa !22
  %71 = load ptr, ptr %9, align 8, !tbaa !33
  %72 = icmp ne ptr %71, null
  br i1 %72, label %73, label %76

73:                                               ; preds = %58
  %74 = load i32, ptr %14, align 4, !tbaa !22
  %75 = load ptr, ptr %9, align 8, !tbaa !33
  store i32 %74, ptr %75, align 4, !tbaa !22
  br label %76

76:                                               ; preds = %73, %58
  %77 = load ptr, ptr %10, align 8, !tbaa !33
  %78 = icmp ne ptr %77, null
  br i1 %78, label %79, label %95

79:                                               ; preds = %76
  %80 = load i32, ptr %7, align 4, !tbaa !22
  %81 = load i32, ptr %13, align 4, !tbaa !22
  %82 = sub nsw i32 %80, %81
  %83 = load i32, ptr %14, align 4, !tbaa !22
  %84 = load ptr, ptr %6, align 8, !tbaa !32
  %85 = getelementptr inbounds nuw %struct.gmx_mtop_t, ptr %84, i32 0, i32 11
  %86 = load ptr, ptr %8, align 8, !tbaa !33
  %87 = load i32, ptr %86, align 4, !tbaa !22
  %88 = sext i32 %87 to i64
  %89 = call noundef nonnull align 4 dereferenceable(24) ptr @_ZNKSt6vectorI20MoleculeBlockIndicesSaIS0_EEixEm(ptr noundef nonnull align 8 dereferenceable(24) %85, i64 noundef %88) #18
  %90 = getelementptr inbounds nuw %struct.MoleculeBlockIndices, ptr %89, i32 0, i32 0
  %91 = load i32, ptr %90, align 4, !tbaa !77
  %92 = mul nsw i32 %83, %91
  %93 = sub nsw i32 %82, %92
  %94 = load ptr, ptr %10, align 8, !tbaa !33
  store i32 %93, ptr %94, align 4, !tbaa !22
  br label %95

95:                                               ; preds = %79, %76
  call void @llvm.lifetime.end.p0(i64 4, ptr %14) #18
  call void @llvm.lifetime.end.p0(i64 4, ptr %13) #18
  call void @llvm.lifetime.end.p0(i64 4, ptr %12) #18
  call void @llvm.lifetime.end.p0(i64 4, ptr %11) #18
  ret void
}

; Function Attrs: inlinehint mustprogress nounwind uwtable
define internal noundef nonnull align 4 dereferenceable(52) ptr @_ZL18mtopGetAtomPdbInfoRK10gmx_mtop_tiPi(ptr noundef nonnull align 8 dereferenceable(768) %0, i32 noundef %1, ptr noundef %2) #5 {
  %4 = alloca ptr, align 8
  %5 = alloca i32, align 4
  %6 = alloca ptr, align 8
  %7 = alloca i32, align 4
  %8 = alloca ptr, align 8
  store ptr %0, ptr %4, align 8, !tbaa !32
  store i32 %1, ptr %5, align 4, !tbaa !22
  store ptr %2, ptr %6, align 8, !tbaa !33
  call void @llvm.lifetime.start.p0(i64 4, ptr %7) #18
  store i32 0, ptr %7, align 4, !tbaa !22
  %9 = load ptr, ptr %4, align 8, !tbaa !32
  %10 = load i32, ptr %5, align 4, !tbaa !22
  %11 = load ptr, ptr %6, align 8, !tbaa !33
  call void @_ZL20mtopGetMolblockIndexRK10gmx_mtop_tiPiS2_S2_(ptr noundef nonnull align 8 dereferenceable(768) %9, i32 noundef %10, ptr noundef %11, ptr noundef null, ptr noundef %7)
  call void @llvm.lifetime.start.p0(i64 8, ptr %8) #18
  %12 = load ptr, ptr %4, align 8, !tbaa !32
  %13 = getelementptr inbounds nuw %struct.gmx_mtop_t, ptr %12, i32 0, i32 2
  %14 = load ptr, ptr %4, align 8, !tbaa !32
  %15 = getelementptr inbounds nuw %struct.gmx_mtop_t, ptr %14, i32 0, i32 3
  %16 = load ptr, ptr %6, align 8, !tbaa !33
  %17 = load i32, ptr %16, align 4, !tbaa !22
  %18 = sext i32 %17 to i64
  %19 = call noundef nonnull align 8 dereferenceable(56) ptr @_ZNKSt6vectorI14gmx_molblock_tSaIS0_EEixEm(ptr noundef nonnull align 8 dereferenceable(24) %15, i64 noundef %18) #18
  %20 = getelementptr inbounds nuw %struct.gmx_molblock_t, ptr %19, i32 0, i32 0
  %21 = load i32, ptr %20, align 8, !tbaa !39
  %22 = sext i32 %21 to i64
  %23 = call noundef nonnull align 8 dereferenceable(2408) ptr @_ZNKSt6vectorI13gmx_moltype_tSaIS0_EEixEm(ptr noundef nonnull align 8 dereferenceable(24) %13, i64 noundef %22) #18
  store ptr %23, ptr %8, align 8, !tbaa !259
  %24 = load ptr, ptr %8, align 8, !tbaa !259
  %25 = getelementptr inbounds nuw %struct.gmx_moltype_t, ptr %24, i32 0, i32 1
  %26 = getelementptr inbounds nuw %struct.t_atoms, ptr %25, i32 0, i32 7
  %27 = load ptr, ptr %26, align 8, !tbaa !260
  %28 = load i32, ptr %7, align 4, !tbaa !22
  %29 = sext i32 %28 to i64
  %30 = getelementptr inbounds %struct.t_pdbinfo, ptr %27, i64 %29
  call void @llvm.lifetime.end.p0(i64 8, ptr %8) #18
  call void @llvm.lifetime.end.p0(i64 4, ptr %7) #18
  ret ptr %30
}

; Function Attrs: mustprogress nounwind uwtable
define internal void @_ZL18evaluate_occupancyRKN3gmx20SelMethodEvalContextEP15gmx_ana_index_tP18gmx_ana_selvalue_tPv(ptr noundef nonnull align 8 dereferenceable(24) %0, ptr noundef %1, ptr noundef %2, ptr noundef %3) #2 {
  %5 = alloca ptr, align 8
  %6 = alloca ptr, align 8
  %7 = alloca ptr, align 8
  %8 = alloca ptr, align 8
  %9 = alloca i32, align 4
  %10 = alloca i32, align 4
  store ptr %0, ptr %5, align 8, !tbaa !4
  store ptr %1, ptr %6, align 8, !tbaa !9
  store ptr %2, ptr %7, align 8, !tbaa !11
  store ptr %3, ptr %8, align 8, !tbaa !13
  %11 = load ptr, ptr %6, align 8, !tbaa !9
  %12 = getelementptr inbounds nuw %struct.gmx_ana_index_t, ptr %11, i32 0, i32 0
  %13 = load i32, ptr %12, align 8, !tbaa !15
  %14 = load ptr, ptr %7, align 8, !tbaa !11
  %15 = getelementptr inbounds nuw %struct.gmx_ana_selvalue_t, ptr %14, i32 0, i32 1
  store i32 %13, ptr %15, align 4, !tbaa !19
  call void @llvm.lifetime.start.p0(i64 4, ptr %9) #18
  store i32 0, ptr %9, align 4, !tbaa !22
  call void @llvm.lifetime.start.p0(i64 4, ptr %10) #18
  store i32 0, ptr %10, align 4, !tbaa !22
  br label %16

16:                                               ; preds = %43, %4
  %17 = load i32, ptr %10, align 4, !tbaa !22
  %18 = load ptr, ptr %6, align 8, !tbaa !9
  %19 = getelementptr inbounds nuw %struct.gmx_ana_index_t, ptr %18, i32 0, i32 0
  %20 = load i32, ptr %19, align 8, !tbaa !15
  %21 = icmp slt i32 %17, %20
  br i1 %21, label %23, label %22

22:                                               ; preds = %16
  call void @llvm.lifetime.end.p0(i64 4, ptr %10) #18
  br label %46

23:                                               ; preds = %16
  %24 = load ptr, ptr %5, align 8, !tbaa !4
  %25 = getelementptr inbounds nuw %"struct.gmx::SelMethodEvalContext", ptr %24, i32 0, i32 0
  %26 = load ptr, ptr %25, align 8, !tbaa !26
  %27 = load ptr, ptr %6, align 8, !tbaa !9
  %28 = getelementptr inbounds nuw %struct.gmx_ana_index_t, ptr %27, i32 0, i32 1
  %29 = load ptr, ptr %28, align 8, !tbaa !23
  %30 = load i32, ptr %10, align 4, !tbaa !22
  %31 = sext i32 %30 to i64
  %32 = getelementptr inbounds i32, ptr %29, i64 %31
  %33 = load i32, ptr %32, align 4, !tbaa !22
  %34 = call noundef nonnull align 4 dereferenceable(52) ptr @_ZL18mtopGetAtomPdbInfoRK10gmx_mtop_tiPi(ptr noundef nonnull align 8 dereferenceable(768) %26, i32 noundef %33, ptr noundef %9)
  %35 = getelementptr inbounds nuw %struct.t_pdbinfo, ptr %34, i32 0, i32 4
  %36 = load float, ptr %35, align 4, !tbaa !283
  %37 = load ptr, ptr %7, align 8, !tbaa !11
  %38 = getelementptr inbounds nuw %struct.gmx_ana_selvalue_t, ptr %37, i32 0, i32 2
  %39 = load ptr, ptr %38, align 8, !tbaa !14
  %40 = load i32, ptr %10, align 4, !tbaa !22
  %41 = sext i32 %40 to i64
  %42 = getelementptr inbounds float, ptr %39, i64 %41
  store float %36, ptr %42, align 4, !tbaa !273
  br label %43

43:                                               ; preds = %23
  %44 = load i32, ptr %10, align 4, !tbaa !22
  %45 = add nsw i32 %44, 1
  store i32 %45, ptr %10, align 4, !tbaa !22
  br label %16, !llvm.loop !284

46:                                               ; preds = %22
  call void @llvm.lifetime.end.p0(i64 4, ptr %9) #18
  ret void
}